; Function Attrs: mustprogress uwtable
define internal fastcc void @_ZN9benchmark12_GLOBAL__N_18PrintImpIRA32_KcJEEEvRSoOT_DpOT0_() unnamed_addr #3 {
  %1 = alloca i8, align 1
  %2 = tail call noundef nonnull align 8 dereferenceable(8) ptr @_ZSt16__ostream_insertIcSt11char_traitsIcEERSt13basic_ostreamIT_T0_ES6_PKS3_l(ptr noundef nonnull align 8 dereferenceable(8) @_ZSt4cerr, ptr noundef nonnull @.str.22, i64 noundef 31)
  call void @llvm.lifetime.start.p0(i64 1, ptr nonnull %1)
  store i8 10, ptr %1, align 1, !tbaa !32
  %3 = load ptr, ptr @_ZSt4cerr, align 8, !tbaa !38
  %4 = getelementptr i8, ptr %3, i64 -24
  %5 = load i64, ptr %4, align 8
  %6 = getelementptr inbounds i8, ptr @_ZSt4cerr, i64 %5
  %7 = getelementptr inbounds nuw i8, ptr %6, i64 16
  %8 = load i64, ptr %7, align 8, !tbaa !115
  %.not.i.i = icmp eq i64 %8, 0
  br i1 %.not.i.i, label %11, label %9

9:                                                ; preds = %0
  %10 = call noundef nonnull align 8 dereferenceable(8) ptr @_ZSt16__ostream_insertIcSt11char_traitsIcEERSt13basic_ostreamIT_T0_ES6_PKS3_l(ptr noundef nonnull align 8 dereferenceable(8) @_ZSt4cerr, ptr noundef nonnull %1, i64 noundef 1)
  br label %_ZN9benchmark12_GLOBAL__N_18PrintImpERSo.exit

11:                                               ; preds = %0
  %12 = tail call noundef nonnull align 8 dereferenceable(8) ptr @_ZNSo3putEc(ptr noundef nonnull align 8 dereferenceable(8) @_ZSt4cerr, i8 noundef signext 10)
  br label %_ZN9benchmark12_GLOBAL__N_18PrintImpERSo.exit

_ZN9benchmark12_GLOBAL__N_18PrintImpERSo.exit:    ; preds = %9, %11
  call void @llvm.lifetime.end.p0(i64 1, ptr nonnull %1)
  ret void
}